target datalayout = "e-m:e-p270:32:32-p271:32:32-p272:64:64-i64:64-i128:128-f80:128-n8:16:32:64-S128"
target triple = "x86_64-unknown-linux-gnu"

%"class.icu_75::RuleBasedCollator" = type <{ %"class.icu_75::Collator", ptr, ptr, ptr, ptr, %"class.icu_75::Locale", i32, i8, [3 x i8] }>
%"class.icu_75::Collator" = type { %"class.icu_75::UObject" }
%"class.icu_75::UObject" = type { ptr }
%"class.icu_75::Locale" = type <{ %"class.icu_75::UObject", [12 x i8], [6 x i8], [4 x i8], [2 x i8], i32, [4 x i8], ptr, [157 x i8], [3 x i8], ptr, i8, [7 x i8] }>
%"struct.icu_75::CollationTailoring" = type { %"class.icu_75::SharedObject", ptr, ptr, %"class.icu_75::UnicodeString", %"class.icu_75::Locale", [4 x i8], ptr, ptr, ptr, ptr, ptr, ptr, ptr, %"struct.icu_75::UInitOnce" }
%"class.icu_75::SharedObject" = type { %"class.icu_75::UObject", i32, %"struct.std::atomic", ptr }
%"struct.std::atomic" = type { %"struct.std::__atomic_base" }
%"struct.std::__atomic_base" = type { i32 }
%"class.icu_75::UnicodeString" = type { %"class.icu_75::Replaceable", %"union.icu_75::UnicodeString::StackBufferOrFields" }
%"class.icu_75::Replaceable" = type { %"class.icu_75::UObject" }
%"union.icu_75::UnicodeString::StackBufferOrFields" = type { %struct.anon.1, [32 x i8] }
%struct.anon.1 = type { i16, i32, i32, ptr }
%"struct.icu_75::UInitOnce" = type { %"struct.std::atomic", i32 }
%"struct.icu_75::CollationSettings" = type <{ %"class.icu_75::SharedObject", i32, i32, ptr, i32, [4 x i8], ptr, i32, [4 x i8], ptr, i32, i32, i32, [384 x i16], [4 x i8] }>

; Function Attrs: mustprogress nounwind uwtable
define linkonce_odr void @_ZN6icu_7517RuleBasedCollator22setAttributeExplicitlyEi(ptr noundef nonnull align 8 dereferenceable(272) %this, i32 noundef %attribute) #0 comdat align 2 {
entry:
  %this.addr = alloca ptr, align 8
  %attribute.addr = alloca i32, align 4
  store ptr %this, ptr %this.addr, align 8
  store i32 %attribute, ptr %attribute.addr, align 4
  %this1 = load ptr, ptr %this.addr, align 8
  %0 = load i32, ptr %attribute.addr, align 4
  %shl = shl i32 1, %0
  %explicitlySetAttributes = getelementptr inbounds %"class.icu_75::RuleBasedCollator", ptr %this1, i32 0, i32 6
  %1 = load i32, ptr %explicitlySetAttributes, align 8
  %or = or i32 %1, %shl
  store i32 %or, ptr %explicitlySetAttributes, align 8
  ret void
}

; Function Attrs: mustprogress nounwind uwtable
define linkonce_odr void @_ZN6icu_7517RuleBasedCollator19setAttributeDefaultEi(ptr noundef nonnull align 8 dereferenceable(272) %this, i32 noundef %attribute) #0 comdat align 2 {
entry:
  %this.addr = alloca ptr, align 8
  %attribute.addr = alloca i32, align 4
  store ptr %this, ptr %this.addr, align 8
  store i32 %attribute, ptr %attribute.addr, align 4
  %this1 = load ptr, ptr %this.addr, align 8
  %0 = load i32, ptr %attribute.addr, align 4
  %shl = shl i32 1, %0
  %not = xor i32 %shl, -1
  %explicitlySetAttributes = getelementptr inbounds %"class.icu_75::RuleBasedCollator", ptr %this1, i32 0, i32 6
  %1 = load i32, ptr %explicitlySetAttributes, align 8
  %and = and i32 %1, %not
  store i32 %and, ptr %explicitlySetAttributes, align 8
  ret void
}

; Function Attrs: mustprogress uwtable
define void @_ZNK6icu_7517RuleBasedCollator19setFastLatinOptionsERNS_17CollationSettingsE(ptr noundef nonnull align 8 dereferenceable(272) %this, ptr noundef nonnull align 8 dereferenceable(852) %ownedSettings) #1 align 2 {
entry:
  %this.addr = alloca ptr, align 8
  %ownedSettings.addr = alloca ptr, align 8
  store ptr %this, ptr %this.addr, align 8
  store ptr %ownedSettings, ptr %ownedSettings.addr, align 8
  %this1 = load ptr, ptr %this.addr, align 8
  %data = getelementptr inbounds %"class.icu_75::RuleBasedCollator", ptr %this1, i32 0, i32 1
  %0 = load ptr, ptr %data, align 8
  %1 = load ptr, ptr %ownedSettings.addr, align 8
  %2 = load ptr, ptr %ownedSettings.addr, align 8
  %fastLatinPrimaries = getelementptr inbounds %"struct.icu_75::CollationSettings", ptr %2, i32 0, i32 13
  %arraydecay = getelementptr inbounds [384 x i16], ptr %fastLatinPrimaries, i64 0, i64 0
  %call = call noundef i32 @_ZN6icu_7518CollationFastLatin10getOptionsEPKNS_13CollationDataERKNS_17CollationSettingsEPti(ptr noundef %0, ptr noundef nonnull align 8 dereferenceable(852) %1, ptr noundef %arraydecay, i32 noundef 384)
  %3 = load ptr, ptr %ownedSettings.addr, align 8
  %fastLatinOptions = getelementptr inbounds %"struct.icu_75::CollationSettings", ptr %3, i32 0, i32 12
  store i32 %call, ptr %fastLatinOptions, align 8
  ret void
}

; Function Attrs: mustprogress nounwind uwtable
define noundef nonnull align 8 dereferenceable(852) ptr @_ZNK6icu_7517RuleBasedCollator18getDefaultSettingsEv(ptr noundef nonnull align 8 dereferenceable(272) %this) #0 align 2 {
entry:
  %this.addr = alloca ptr, align 8
  store ptr %this, ptr %this.addr, align 8
  %this1 = load ptr, ptr %this.addr, align 8
  %tailoring = getelementptr inbounds %"class.icu_75::RuleBasedCollator", ptr %this1, i32 0, i32 3
  %0 = load ptr, ptr %tailoring, align 8
  %settings = getelementptr inbounds %"struct.icu_75::CollationTailoring", ptr %0, i32 0, i32 2
  %1 = load ptr, ptr %settings, align 8
  ret ptr %1
}

; Function Attrs: mustprogress uwtable
define linkonce_odr noundef ptr @_ZN6icu_7512SharedObject11copyOnWriteINS_17CollationSettingsEEEPT_RPKS3_(ptr noundef nonnull align 8 dereferenceable(8) %ptr) #1 comdat align 2 personality ptr @__gxx_personality_v0 {
entry:
  %retval = alloca ptr, align 8
  %ptr.addr = alloca ptr, align 8
  %p = alloca ptr, align 8
  %p2 = alloca ptr, align 8
  %saved-rvalue = alloca ptr, align 8
  %cleanup.cond = alloca i1, align 1
  %exn.slot = alloca ptr, align 8
  %ehselector.slot = alloca i32, align 4
  store ptr %ptr, ptr %ptr.addr, align 8
  %0 = load ptr, ptr %ptr.addr, align 8
  %1 = load ptr, ptr %0, align 8
  store ptr %1, ptr %p, align 8
  %2 = load ptr, ptr %p, align 8
  %call = call noundef i32 @_ZNK6icu_7512SharedObject11getRefCountEv(ptr noundef nonnull align 8 dereferenceable(24) %2)
  %cmp = icmp sle i32 %call, 1
  br i1 %cmp, label %if.then, label %if.end

if.then:                                          ; preds = %entry
  %3 = load ptr, ptr %p, align 8
  store ptr %3, ptr %retval, align 8
  br label %return

if.end:                                           ; preds = %entry
  %call1 = call noundef ptr @_ZN6icu_757UMemorynwEm(i64 noundef 856) #10
  %new.isnull = icmp eq ptr %call1, null
  store i1 false, ptr %cleanup.cond, align 1
  br i1 %new.isnull, label %new.cont, label %new.notnull

new.notnull:                                      ; preds = %if.end
  store ptr %call1, ptr %saved-rvalue, align 8
  store i1 true, ptr %cleanup.cond, align 1
  %4 = load ptr, ptr %p, align 8
  invoke void @_ZN6icu_7517CollationSettingsC1ERKS0_(ptr noundef nonnull align 8 dereferenceable(852) %call1, ptr noundef nonnull align 8 dereferenceable(852) %4)
          to label %invoke.cont unwind label %lpad

invoke.cont:                                      ; preds = %new.notnull
  br label %new.cont

new.cont:                                         ; preds = %invoke.cont, %if.end
  %5 = phi ptr [ %call1, %invoke.cont ], [ null, %if.end ]
  store ptr %5, ptr %p2, align 8
  %6 = load ptr, ptr %p2, align 8
  %cmp2 = icmp eq ptr %6, null
  br i1 %cmp2, label %if.then3, label %if.end4

if.then3:                                         ; preds = %new.cont
  store ptr null, ptr %retval, align 8
  br label %return

lpad:                                             ; preds = %new.notnull
  %7 = landingpad { ptr, i32 }
          cleanup
  %8 = extractvalue { ptr, i32 } %7, 0
  store ptr %8, ptr %exn.slot, align 8
  %9 = extractvalue { ptr, i32 } %7, 1
  store i32 %9, ptr %ehselector.slot, align 4
  %cleanup.is_active = load i1, ptr %cleanup.cond, align 1
  br i1 %cleanup.is_active, label %cleanup.action, label %cleanup.done

cleanup.action:                                   ; preds = %lpad
  %10 = load ptr, ptr %saved-rvalue, align 8
  call void @_ZN6icu_757UMemorydlEPv(ptr noundef %10) #10
  br label %cleanup.done

cleanup.done:                                     ; preds = %cleanup.action, %lpad
  br label %eh.resume

if.end4:                                          ; preds = %new.cont
  %11 = load ptr, ptr %p, align 8
  call void @_ZNK6icu_7512SharedObject9removeRefEv(ptr noundef nonnull align 8 dereferenceable(24) %11)
  %12 = load ptr, ptr %p2, align 8
  %13 = load ptr, ptr %ptr.addr, align 8
  store ptr %12, ptr %13, align 8
  %14 = load ptr, ptr %p2, align 8
  call void @_ZNK6icu_7512SharedObject6addRefEv(ptr noundef nonnull align 8 dereferenceable(24) %14)
  %15 = load ptr, ptr %p2, align 8
  store ptr %15, ptr %retval, align 8
  br label %return

return:                                           ; preds = %if.end4, %if.then3, %if.then
  %16 = load ptr, ptr %retval, align 8
  ret ptr %16

eh.resume:                                        ; preds = %cleanup.done
  %exn = load ptr, ptr %exn.slot, align 8
  %sel = load i32, ptr %ehselector.slot, align 4
  %lpad.val = insertvalue { ptr, i32 } poison, ptr %exn, 0
  %lpad.val5 = insertvalue { ptr, i32 } %lpad.val, i32 %sel, 1
  resume { ptr, i32 } %lpad.val5
}

; Function Attrs: mustprogress nounwind uwtable
define internal noundef signext i8 @_ZL9U_FAILURE10UErrorCode(i32 noundef %code) #0 {
entry:
  %code.addr = alloca i32, align 4
  store i32 %code, ptr %code.addr, align 4
  %0 = load i32, ptr %code.addr, align 4
  %cmp = icmp sgt i32 %0, 0
  %conv = zext i1 %cmp to i8
  ret i8 %conv
}

; Function Attrs: mustprogress uwtable
define void @_ZN6icu_7517RuleBasedCollator14setVariableTopEjR10UErrorCode(ptr noundef nonnull align 8 dereferenceable(272) %this, i32 noundef %varTop, ptr noundef nonnull align 4 dereferenceable(4) %errorCode) unnamed_addr #1 align 2 {
entry:
  %this.addr = alloca ptr, align 8
  %varTop.addr = alloca i32, align 4
  %errorCode.addr = alloca ptr, align 8
  %group = alloca i32, align 4
  %v = alloca i32, align 4
  %ownedSettings = alloca ptr, align 8
  store ptr %this, ptr %this.addr, align 8
  store i32 %varTop, ptr %varTop.addr, align 4
  store ptr %errorCode, ptr %errorCode.addr, align 8
  %this1 = load ptr, ptr %this.addr, align 8
  %0 = load ptr, ptr %errorCode.addr, align 8
  %1 = load i32, ptr %0, align 4
  %call = call noundef signext i8 @_ZL9U_FAILURE10UErrorCode(i32 noundef %1)
  %tobool = icmp ne i8 %call, 0
  br i1 %tobool, label %if.then, label %if.end

if.then:                                          ; preds = %entry
  br label %if.end31

if.end:                                           ; preds = %entry
  %2 = load i32, ptr %varTop.addr, align 4
  %settings = getelementptr inbounds %"class.icu_75::RuleBasedCollator", ptr %this1, i32 0, i32 2
  %3 = load ptr, ptr %settings, align 8
  %variableTop = getelementptr inbounds %"struct.icu_75::CollationSettings", ptr %3, i32 0, i32 2
  %4 = load i32, ptr %variableTop, align 4
  %cmp = icmp ne i32 %2, %4
  br i1 %cmp, label %if.then2, label %if.end26

if.then2:                                         ; preds = %if.end
  %data = getelementptr inbounds %"class.icu_75::RuleBasedCollator", ptr %this1, i32 0, i32 1
  %5 = load ptr, ptr %data, align 8
  %6 = load i32, ptr %varTop.addr, align 4
  %call3 = call noundef i32 @_ZNK6icu_7513CollationData18getGroupForPrimaryEj(ptr noundef nonnull align 8 dereferenceable(140) %5, i32 noundef %6)
  store i32 %call3, ptr %group, align 4
  %7 = load i32, ptr %group, align 4
  %cmp4 = icmp slt i32 %7, 4096
  br i1 %cmp4, label %if.then6, label %lor.lhs.false

lor.lhs.false:                                    ; preds = %if.then2
  %8 = load i32, ptr %group, align 4
  %cmp5 = icmp slt i32 4099, %8
  br i1 %cmp5, label %if.then6, label %if.end7

if.then6:                                         ; preds = %lor.lhs.false, %if.then2
  %9 = load ptr, ptr %errorCode.addr, align 8
  store i32 1, ptr %9, align 4
  br label %if.end31

if.end7:                                          ; preds = %lor.lhs.false
  %data8 = getelementptr inbounds %"class.icu_75::RuleBasedCollator", ptr %this1, i32 0, i32 1
  %10 = load ptr, ptr %data8, align 8
  %11 = load i32, ptr %group, align 4
  %call9 = call noundef i32 @_ZNK6icu_7513CollationData22getLastPrimaryForGroupEi(ptr noundef nonnull align 8 dereferenceable(140) %10, i32 noundef %11)
  store i32 %call9, ptr %v, align 4
  %12 = load i32, ptr %v, align 4
  store i32 %12, ptr %varTop.addr, align 4
  %13 = load i32, ptr %varTop.addr, align 4
  %settings10 = getelementptr inbounds %"class.icu_75::RuleBasedCollator", ptr %this1, i32 0, i32 2
  %14 = load ptr, ptr %settings10, align 8
  %variableTop11 = getelementptr inbounds %"struct.icu_75::CollationSettings", ptr %14, i32 0, i32 2
  %15 = load i32, ptr %variableTop11, align 4
  %cmp12 = icmp ne i32 %13, %15
  br i1 %cmp12, label %if.then13, label %if.end25

if.then13:                                        ; preds = %if.end7
  %settings14 = getelementptr inbounds %"class.icu_75::RuleBasedCollator", ptr %this1, i32 0, i32 2
  %call15 = call noundef ptr @_ZN6icu_7512SharedObject11copyOnWriteINS_17CollationSettingsEEEPT_RPKS3_(ptr noundef nonnull align 8 dereferenceable(8) %settings14)
  store ptr %call15, ptr %ownedSettings, align 8
  %16 = load ptr, ptr %ownedSettings, align 8
  %cmp16 = icmp eq ptr %16, null
  br i1 %cmp16, label %if.then17, label %if.end18

if.then17:                                        ; preds = %if.then13
  %17 = load ptr, ptr %errorCode.addr, align 8
  store i32 7, ptr %17, align 4
  br label %if.end31

if.end18:                                         ; preds = %if.then13
  %18 = load ptr, ptr %ownedSettings, align 8
  %19 = load i32, ptr %group, align 4
  %sub = sub nsw i32 %19, 4096
  %call19 = call noundef nonnull align 8 dereferenceable(852) ptr @_ZNK6icu_7517RuleBasedCollator18getDefaultSettingsEv(ptr noundef nonnull align 8 dereferenceable(272) %this1)
  %options = getelementptr inbounds %"struct.icu_75::CollationSettings", ptr %call19, i32 0, i32 1
  %20 = load i32, ptr %options, align 8
  %21 = load ptr, ptr %errorCode.addr, align 8
  call void @_ZN6icu_7517CollationSettings14setMaxVariableEiiR10UErrorCode(ptr noundef nonnull align 8 dereferenceable(852) %18, i32 noundef %sub, i32 noundef %20, ptr noundef nonnull align 4 dereferenceable(4) %21)
  %22 = load ptr, ptr %errorCode.addr, align 8
  %23 = load i32, ptr %22, align 4
  %call20 = call noundef signext i8 @_ZL9U_FAILURE10UErrorCode(i32 noundef %23)
  %tobool21 = icmp ne i8 %call20, 0
  br i1 %tobool21, label %if.then22, label %if.end23

if.then22:                                        ; preds = %if.end18
  br label %if.end31

if.end23:                                         ; preds = %if.end18
  %24 = load i32, ptr %varTop.addr, align 4
  %25 = load ptr, ptr %ownedSettings, align 8
  %variableTop24 = getelementptr inbounds %"struct.icu_75::CollationSettings", ptr %25, i32 0, i32 2
  store i32 %24, ptr %variableTop24, align 4
  %26 = load ptr, ptr %ownedSettings, align 8
  call void @_ZNK6icu_7517RuleBasedCollator19setFastLatinOptionsERNS_17CollationSettingsE(ptr noundef nonnull align 8 dereferenceable(272) %this1, ptr noundef nonnull align 8 dereferenceable(852) %26)
  br label %if.end25

if.end25:                                         ; preds = %if.end23, %if.end7
  br label %if.end26

if.end26:                                         ; preds = %if.end25, %if.end
  %27 = load i32, ptr %varTop.addr, align 4
  %call27 = call noundef nonnull align 8 dereferenceable(852) ptr @_ZNK6icu_7517RuleBasedCollator18getDefaultSettingsEv(ptr noundef nonnull align 8 dereferenceable(272) %this1)
  %variableTop28 = getelementptr inbounds %"struct.icu_75::CollationSettings", ptr %call27, i32 0, i32 2
  %28 = load i32, ptr %variableTop28, align 4
  %cmp29 = icmp eq i32 %27, %28
  br i1 %cmp29, label %if.then30, label %if.else

if.then30:                                        ; preds = %if.end26
  call void @_ZN6icu_7517RuleBasedCollator19setAttributeDefaultEi(ptr noundef nonnull align 8 dereferenceable(272) %this1, i32 noundef 8)
  br label %if.end31

if.else:                                          ; preds = %if.end26
  call void @_ZN6icu_7517RuleBasedCollator22setAttributeExplicitlyEi(ptr noundef nonnull align 8 dereferenceable(272) %this1, i32 noundef 8)
  br label %if.end31

if.end31:                                         ; preds = %if.else, %if.then30, %if.then22, %if.then17, %if.then6, %if.then
  ret void
}