; Function Attrs: mustprogress uwtable
define void @_ZN6icu_7517RuleBasedCollator14setVariableTopEjR10UErrorCode(ptr nocapture noundef nonnull align 8 dereferenceable(272) %this, i32 noundef %varTop, ptr noundef nonnull align 4 dereferenceable(4) %errorCode) unnamed_addr #1 align 2 personality ptr @__gxx_personality_v0 {
entry:
  %0 = load i32, ptr %errorCode, align 4
  %cmp.i = icmp slt i32 %0, 1
  br i1 %cmp.i, label %if.end, label %if.end31

if.end:                                           ; preds = %entry
  %settings = getelementptr inbounds i8, ptr %this, i64 16
  %1 = load ptr, ptr %settings, align 8
  %variableTop = getelementptr inbounds i8, ptr %1, i64 28
  %2 = load i32, ptr %variableTop, align 4
  %cmp.not = icmp eq i32 %2, %varTop
  br i1 %cmp.not, label %if.end26, label %if.then2

if.then2:                                         ; preds = %if.end
  %data = getelementptr inbounds i8, ptr %this, i64 8
  %3 = load ptr, ptr %data, align 8
  %call3 = tail call noundef i32 @_ZNK6icu_7513CollationData18getGroupForPrimaryEj(ptr noundef nonnull align 8 dereferenceable(140) %3, i32 noundef %varTop)
  %4 = add i32 %call3, -4100
  %or.cond = icmp ult i32 %4, -4
  br i1 %or.cond, label %if.then6, label %if.end7

if.then6:                                         ; preds = %if.then2
  store i32 1, ptr %errorCode, align 4
  br label %if.end31

if.end7:                                          ; preds = %if.then2
  %5 = load ptr, ptr %data, align 8
  %call9 = tail call noundef i32 @_ZNK6icu_7513CollationData22getLastPrimaryForGroupEi(ptr noundef nonnull align 8 dereferenceable(140) %5, i32 noundef %call3)
  %6 = load ptr, ptr %settings, align 8
  %variableTop11 = getelementptr inbounds i8, ptr %6, i64 28
  %7 = load i32, ptr %variableTop11, align 4
  %cmp12.not = icmp eq i32 %call9, %7
  br i1 %cmp12.not, label %if.end26, label %if.then13

if.then13:                                        ; preds = %if.end7
  %call.i = tail call noundef i32 @_ZNK6icu_7512SharedObject11getRefCountEv(ptr noundef nonnull align 8 dereferenceable(24) %6)
  %cmp.i15 = icmp slt i32 %call.i, 2
  br i1 %cmp.i15, label %if.end18, label %if.end.i

if.end.i:                                         ; preds = %if.then13
  %call1.i = tail call noundef ptr @_ZN6icu_757UMemorynwEm(i64 noundef 856) #17
  %new.isnull.i = icmp eq ptr %call1.i, null
  br i1 %new.isnull.i, label %if.then17, label %new.notnull.i

new.notnull.i:                                    ; preds = %if.end.i
  invoke void @_ZN6icu_7517CollationSettingsC1ERKS0_(ptr noundef nonnull align 8 dereferenceable(852) %call1.i, ptr noundef nonnull align 8 dereferenceable(852) %6)
          to label %if.end4.i unwind label %lpad.i

lpad.i:                                           ; preds = %new.notnull.i
  %8 = landingpad { ptr, i32 }
          cleanup
  tail call void @_ZN6icu_757UMemorydlEPv(ptr noundef nonnull %call1.i) #17
  resume { ptr, i32 } %8

if.end4.i:                                        ; preds = %new.notnull.i
  tail call void @_ZNK6icu_7512SharedObject9removeRefEv(ptr noundef nonnull align 8 dereferenceable(24) %6)
  store ptr %call1.i, ptr %settings, align 8
  tail call void @_ZNK6icu_7512SharedObject6addRefEv(ptr noundef nonnull align 8 dereferenceable(24) %call1.i)
  br label %if.end18

if.then17:                                        ; preds = %if.end.i
  store i32 7, ptr %errorCode, align 4
  br label %if.end31

if.end18:                                         ; preds = %if.end4.i, %if.then13
  %retval.0.i.ph = phi ptr [ %6, %if.then13 ], [ %call1.i, %if.end4.i ]
  %sub = add nsw i32 %call3, -4096
  %tailoring.i = getelementptr inbounds i8, ptr %this, i64 24
  %9 = load ptr, ptr %tailoring.i, align 8
  %settings.i = getelementptr inbounds i8, ptr %9, i64 32
  %10 = load ptr, ptr %settings.i, align 8
  %options = getelementptr inbounds i8, ptr %10, i64 24
  %11 = load i32, ptr %options, align 8
  tail call void @_ZN6icu_7517CollationSettings14setMaxVariableEiiR10UErrorCode(ptr noundef nonnull align 8 dereferenceable(852) %retval.0.i.ph, i32 noundef %sub, i32 noundef %11, ptr noundef nonnull align 4 dereferenceable(4) %errorCode)
  %12 = load i32, ptr %errorCode, align 4
  %cmp.i16 = icmp slt i32 %12, 1
  br i1 %cmp.i16, label %if.end23, label %if.end31

if.end23:                                         ; preds = %if.end18
  %variableTop24 = getelementptr inbounds i8, ptr %retval.0.i.ph, i64 28
  store i32 %call9, ptr %variableTop24, align 4
  %13 = load ptr, ptr %data, align 8
  %fastLatinPrimaries.i = getelementptr inbounds i8, ptr %retval.0.i.ph, i64 84
  %call.i18 = tail call noundef i32 @_ZN6icu_7518CollationFastLatin10getOptionsEPKNS_13CollationDataERKNS_17CollationSettingsEPti(ptr noundef %13, ptr noundef nonnull align 8 dereferenceable(852) %retval.0.i.ph, ptr noundef nonnull %fastLatinPrimaries.i, i32 noundef 384)
  %fastLatinOptions.i = getelementptr inbounds i8, ptr %retval.0.i.ph, i64 80
  store i32 %call.i18, ptr %fastLatinOptions.i, align 8
  br label %if.end26

if.end26:                                         ; preds = %if.end7, %if.end23, %if.end
  %varTop.addr.0 = phi i32 [ %call9, %if.end23 ], [ %call9, %if.end7 ], [ %varTop, %if.end ]
  %tailoring.i19 = getelementptr inbounds i8, ptr %this, i64 24
  %14 = load ptr, ptr %tailoring.i19, align 8
  %settings.i20 = getelementptr inbounds i8, ptr %14, i64 32
  %15 = load ptr, ptr %settings.i20, align 8
  %variableTop28 = getelementptr inbounds i8, ptr %15, i64 28
  %16 = load i32, ptr %variableTop28, align 4
  %cmp29 = icmp eq i32 %varTop.addr.0, %16
  %explicitlySetAttributes.i = getelementptr inbounds i8, ptr %this, i64 264
  %17 = load i32, ptr %explicitlySetAttributes.i, align 8
  br i1 %cmp29, label %if.then30, label %if.else

if.then30:                                        ; preds = %if.end26
  %and.i = and i32 %17, -257
  store i32 %and.i, ptr %explicitlySetAttributes.i, align 8
  br label %if.end31

if.else:                                          ; preds = %if.end26
  %or.i = or i32 %17, 256
  store i32 %or.i, ptr %explicitlySetAttributes.i, align 8
  br label %if.end31

if.end31:                                         ; preds = %if.end18, %entry, %if.else, %if.then30, %if.then17, %if.then6
  ret void
}